---
triple:          'arm64-apple-darwin'
binary-path:     test_skiplist
relocations:
  - { offsetInCU: 0x3BAD, offset: 0x3BAD, size: 0x8, addend: 0x0, symName: __ZNSt3__124__put_character_sequenceB7v160006IcNS_11char_traitsIcEEEERNS_13basic_ostreamIT_T0_EES7_PKS4_m, symObjAddr: 0x1528, symBinAddr: 0x100001BB0, symSize: 0x1EC }
  - { offsetInCU: 0x5A3E, offset: 0x5A3E, size: 0x8, addend: 0x0, symName: __ZNSt3__1lsB7v160006INS_11char_traitsIcEEEERNS_13basic_ostreamIcT_EES6_PKc, symObjAddr: 0x368, symBinAddr: 0x1000009F0, symSize: 0x48 }
  - { offsetInCU: 0x5A84, offset: 0x5A84, size: 0x8, addend: 0x0, symName: __ZNSt3__14endlB7v160006IcNS_11char_traitsIcEEEERNS_13basic_ostreamIT_T0_EES7_, symObjAddr: 0x3DC, symBinAddr: 0x100000A64, symSize: 0x58 }
  - { offsetInCU: 0x5AC4, offset: 0x5AC4, size: 0x8, addend: 0x0, symName: __ZNSt3__1lsB7v160006IcNS_11char_traitsIcEENS_9allocatorIcEEEERNS_13basic_ostreamIT_T0_EES9_RKNS_12basic_stringIS6_S7_T1_EE, symObjAddr: 0x90C, symBinAddr: 0x100000F94, symSize: 0x4C }
  - { offsetInCU: 0x5B1C, offset: 0x5B1C, size: 0x8, addend: 0x0, symName: __ZNSt3__1ltB7v160006ENS_15strong_orderingENS_20_CmpUnspecifiedParamE, symObjAddr: 0xB78, symBinAddr: 0x100001200, symSize: 0x24 }
  - { offsetInCU: 0x5B55, offset: 0x5B55, size: 0x8, addend: 0x0, symName: __ZNSt3__1ssB7v160006IcNS_11char_traitsIcEENS_9allocatorIcEEEEDaRKNS_12basic_stringIT_T0_T1_EESC_, symObjAddr: 0xB9C, symBinAddr: 0x100001224, symSize: 0x5C }
  - { offsetInCU: 0x5BC9, offset: 0x5BC9, size: 0x8, addend: 0x0, symName: __ZNSt3__1gtB7v160006ENS_15strong_orderingENS_20_CmpUnspecifiedParamE, symObjAddr: 0xC2C, symBinAddr: 0x1000012B4, symSize: 0x24 }
  - { offsetInCU: 0x5C02, offset: 0x5C02, size: 0x8, addend: 0x0, symName: __ZNSt3__1ssB7v160006IcNS_11char_traitsIcEEEEDaNS_17basic_string_viewIT_T0_EES7_, symObjAddr: 0xC50, symBinAddr: 0x1000012D8, symSize: 0x7C }
  - { offsetInCU: 0x5C51, offset: 0x5C51, size: 0x8, addend: 0x0, symName: __ZNSt3__13minB7v160006ImEERKT_S3_S3_, symObjAddr: 0xE58, symBinAddr: 0x1000014E0, symSize: 0x2C }
  - { offsetInCU: 0x5C94, offset: 0x5C94, size: 0x8, addend: 0x0, symName: __ZNSt3__13minB7v160006ImNS_6__lessImmEEEERKT_S5_S5_T0_, symObjAddr: 0xF2C, symBinAddr: 0x1000015B4, symSize: 0x54 }
  - { offsetInCU: 0x5D29, offset: 0x5D29, size: 0x8, addend: 0x0, symName: __ZNSt3__118__constexpr_memcmpB7v160006IcEEiPKT_S3_m, symObjAddr: 0xFB4, symBinAddr: 0x10000163C, symSize: 0x34 }
  - { offsetInCU: 0x5D7A, offset: 0x5D7A, size: 0x8, addend: 0x0, symName: __ZNSt3__112__to_addressB7v160006IKcEEPT_S3_, symObjAddr: 0x10A0, symBinAddr: 0x100001728, symSize: 0x14 }
  - { offsetInCU: 0x5DE2, offset: 0x5DE2, size: 0x8, addend: 0x0, symName: __ZNSt3__119__debug_db_insert_cB7v160006INS_12basic_stringIcNS_11char_traitsIcEENS_9allocatorIcEEEEEEvPT_, symObjAddr: 0x1370, symBinAddr: 0x1000019F8, symSize: 0x10 }
  - { offsetInCU: 0x5E13, offset: 0x5E13, size: 0x8, addend: 0x0, symName: __ZNSt3__118__constexpr_strlenB7v160006EPKc, symObjAddr: 0x143C, symBinAddr: 0x100001AC4, symSize: 0x24 }
  - { offsetInCU: 0x5E3F, offset: 0x5E3F, size: 0x8, addend: 0x0, symName: __ZNSt3__116__pad_and_outputB7v160006IcNS_11char_traitsIcEEEENS_19ostreambuf_iteratorIT_T0_EES6_PKS4_S8_S8_RNS_8ios_baseES4_, symObjAddr: 0x1730, symBinAddr: 0x100001DB8, symSize: 0x240 }
  - { offsetInCU: 0x5F0E, offset: 0x5F0E, size: 0x8, addend: 0x0, symName: __ZNSt3__112__to_addressB7v160006IcEEPT_S2_, symObjAddr: 0x1BA8, symBinAddr: 0x100002230, symSize: 0x14 }
  - { offsetInCU: 0x5F43, offset: 0x5F43, size: 0x8, addend: 0x0, symName: __ZNSt3__19use_facetB7v160006INS_5ctypeIcEEEERKT_RKNS_6localeE, symObjAddr: 0x1DB8, symBinAddr: 0x100002440, symSize: 0x2C }
  - { offsetInCU: 0x651B, offset: 0x651B, size: 0x8, addend: 0x0, symName: __ZNSt3__113__countl_zeroB7v160006IjEEiT_, symObjAddr: 0x27DC, symBinAddr: 0x100002E64, symSize: 0x54 }
  - { offsetInCU: 0x6550, offset: 0x6550, size: 0x8, addend: 0x0, symName: __ZNSt3__112__libcpp_clzB7v160006Ej, symObjAddr: 0x2C74, symBinAddr: 0x1000032FC, symSize: 0x18 }
  - { offsetInCU: 0x6880, offset: 0x6880, size: 0x8, addend: 0x0, symName: __ZN6tinykv8SkipListINSt3__112basic_stringIcNS1_11char_traitsIcEENS1_9allocatorIcEEEES7_E12RandomHeightEv, symObjAddr: 0x2380, symBinAddr: 0x100002A08, symSize: 0x114 }
  - { offsetInCU: 0x68A4, offset: 0x68A4, size: 0x8, addend: 0x0, symName: __ZZN6tinykv8SkipListINSt3__112basic_stringIcNS1_11char_traitsIcEENS1_9allocatorIcEEEES7_E12RandomHeightEvE4dist, symObjAddr: 0x2F70, symBinAddr: 0x100008000, symSize: 0x0 }
  - { offsetInCU: 0x6B24, offset: 0x6B24, size: 0x8, addend: 0x0, symName: __ZNSt3__124uniform_int_distributionIiEclINS_23mersenne_twister_engineIjLm32ELm624ELm397ELm31ELj2567483615ELm11ELj4294967295ELm7ELj2636928640ELm15ELj4022730752ELm18ELj1812433253EEEEEiRT_RKNS1_10param_typeE, symObjAddr: 0x25C4, symBinAddr: 0x100002C4C, symSize: 0x188 }
  - { offsetInCU: 0x8D45, offset: 0x8D45, size: 0x8, addend: 0x0, symName: _main, symObjAddr: 0x0, symBinAddr: 0x100000688, symSize: 0x368 }
  - { offsetInCU: 0x8DAA, offset: 0x8DAA, size: 0x8, addend: 0x0, symName: __ZNSt3__113basic_ostreamIcNS_11char_traitsIcEEElsB7v160006EPFRS3_S4_E, symObjAddr: 0x3B0, symBinAddr: 0x100000A38, symSize: 0x2C }
  - { offsetInCU: 0x8E49, offset: 0x8E49, size: 0x8, addend: 0x0, symName: __ZN16StringComparatorC1Ev, symObjAddr: 0x434, symBinAddr: 0x100000ABC, symSize: 0x2C }
  - { offsetInCU: 0x8E74, offset: 0x8E74, size: 0x8, addend: 0x0, symName: __ZN6tinykv8SkipListINSt3__112basic_stringIcNS1_11char_traitsIcEENS1_9allocatorIcEEEES7_EC1EPNS_10ComparatorIS7_EEPNS_5ArenaEj, symObjAddr: 0x460, symBinAddr: 0x100000AE8, symSize: 0x44 }
  - { offsetInCU: 0x8EC7, offset: 0x8EC7, size: 0x8, addend: 0x0, symName: __ZN6tinykv8SkipListINSt3__112basic_stringIcNS1_11char_traitsIcEENS1_9allocatorIcEEEES7_E6InsertERKS7_SA_, symObjAddr: 0x4A4, symBinAddr: 0x100000B2C, symSize: 0x268 }
  - { offsetInCU: 0x8F88, offset: 0x8F88, size: 0x8, addend: 0x0, symName: __ZNSt3__112basic_stringIcNS_11char_traitsIcEENS_9allocatorIcEEEC1B7v160006IDnEEPKc, symObjAddr: 0x70C, symBinAddr: 0x100000D94, symSize: 0x34 }
  - { offsetInCU: 0x8FC5, offset: 0x8FC5, size: 0x8, addend: 0x0, symName: __ZNK6tinykv8SkipListINSt3__112basic_stringIcNS1_11char_traitsIcEENS1_9allocatorIcEEEES7_E4SizeEv, symObjAddr: 0x740, symBinAddr: 0x100000DC8, symSize: 0x18 }
  - { offsetInCU: 0x8FEA, offset: 0x8FEA, size: 0x8, addend: 0x0, symName: __ZNSt3__112basic_stringIcNS_11char_traitsIcEENS_9allocatorIcEEEC1B7v160006Ev, symObjAddr: 0x758, symBinAddr: 0x100000DE0, symSize: 0x2C }
  - { offsetInCU: 0x9012, offset: 0x9012, size: 0x8, addend: 0x0, symName: __ZNK6tinykv8SkipListINSt3__112basic_stringIcNS1_11char_traitsIcEENS1_9allocatorIcEEEES7_E3GetERKS7_PS7_, symObjAddr: 0x784, symBinAddr: 0x100000E0C, symSize: 0x188 }
  - { offsetInCU: 0x908D, offset: 0x908D, size: 0x8, addend: 0x0, symName: __ZN16StringComparatorC2Ev, symObjAddr: 0x958, symBinAddr: 0x100000FE0, symSize: 0x44 }
  - { offsetInCU: 0x90B8, offset: 0x90B8, size: 0x8, addend: 0x0, symName: __ZN6tinykv10ComparatorINSt3__112basic_stringIcNS1_11char_traitsIcEENS1_9allocatorIcEEEEEC2Ev, symObjAddr: 0x99C, symBinAddr: 0x100001024, symSize: 0x24 }
  - { offsetInCU: 0x90E3, offset: 0x90E3, size: 0x8, addend: 0x0, symName: __ZN16StringComparatorD1Ev, symObjAddr: 0x9C0, symBinAddr: 0x100001048, symSize: 0x2C }
  - { offsetInCU: 0x910E, offset: 0x910E, size: 0x8, addend: 0x0, symName: __ZN16StringComparatorD0Ev, symObjAddr: 0x9EC, symBinAddr: 0x100001074, symSize: 0x30 }
  - { offsetInCU: 0x9139, offset: 0x9139, size: 0x8, addend: 0x0, symName: __ZNK16StringComparator7CompareERKNSt3__112basic_stringIcNS0_11char_traitsIcEENS0_9allocatorIcEEEES8_, symObjAddr: 0xA1C, symBinAddr: 0x1000010A4, symSize: 0xFC }
  - { offsetInCU: 0x9188, offset: 0x9188, size: 0x8, addend: 0x0, symName: __ZN6tinykv10ComparatorINSt3__112basic_stringIcNS1_11char_traitsIcEENS1_9allocatorIcEEEEED1Ev, symObjAddr: 0xB18, symBinAddr: 0x1000011A0, symSize: 0x14 }
  - { offsetInCU: 0x91B1, offset: 0x91B1, size: 0x8, addend: 0x0, symName: __ZN6tinykv10ComparatorINSt3__112basic_stringIcNS1_11char_traitsIcEENS1_9allocatorIcEEEEED0Ev, symObjAddr: 0xB2C, symBinAddr: 0x1000011B4, symSize: 0xC }
  - { offsetInCU: 0x91DA, offset: 0x91DA, size: 0x8, addend: 0x0, symName: __ZN16StringComparatorD2Ev, symObjAddr: 0xB38, symBinAddr: 0x1000011C0, symSize: 0x2C }
  - { offsetInCU: 0x9205, offset: 0x9205, size: 0x8, addend: 0x0, symName: __ZN6tinykv10ComparatorINSt3__112basic_stringIcNS1_11char_traitsIcEENS1_9allocatorIcEEEEED2Ev, symObjAddr: 0xB64, symBinAddr: 0x1000011EC, symSize: 0x14 }
  - { offsetInCU: 0x923D, offset: 0x923D, size: 0x8, addend: 0x0, symName: __ZNSt3__120_CmpUnspecifiedParamC1B7v160006EMS0_i, symObjAddr: 0xBF8, symBinAddr: 0x100001280, symSize: 0x34 }
  - { offsetInCU: 0x9271, offset: 0x9271, size: 0x8, addend: 0x0, symName: __ZNKSt3__112basic_stringIcNS_11char_traitsIcEENS_9allocatorIcEEEcvNS_17basic_string_viewIcS2_EEB7v160006Ev, symObjAddr: 0xCCC, symBinAddr: 0x100001354, symSize: 0x50 }
  - { offsetInCU: 0x9296, offset: 0x9296, size: 0x8, addend: 0x0, symName: __ZNKSt3__117basic_string_viewIcNS_11char_traitsIcEEE7compareES3_, symObjAddr: 0xD1C, symBinAddr: 0x1000013A4, symSize: 0x13C }
  - { offsetInCU: 0x92E8, offset: 0x92E8, size: 0x8, addend: 0x0, symName: __ZNKSt3__117basic_string_viewIcNS_11char_traitsIcEEE4sizeB7v160006Ev, symObjAddr: 0xE84, symBinAddr: 0x10000150C, symSize: 0x18 }
  - { offsetInCU: 0x930D, offset: 0x930D, size: 0x8, addend: 0x0, symName: __ZNSt3__111char_traitsIcE7compareEPKcS3_m, symObjAddr: 0xEA8, symBinAddr: 0x100001530, symSize: 0x6C }
  - { offsetInCU: 0x934C, offset: 0x934C, size: 0x8, addend: 0x0, symName: __ZNKSt3__117basic_string_viewIcNS_11char_traitsIcEEE4dataB7v160006Ev, symObjAddr: 0xF14, symBinAddr: 0x10000159C, symSize: 0x18 }
  - { offsetInCU: 0x9385, offset: 0x9385, size: 0x8, addend: 0x0, symName: __ZNKSt3__16__lessImmEclB7v160006ERKmS3_, symObjAddr: 0xF80, symBinAddr: 0x100001608, symSize: 0x34 }
  - { offsetInCU: 0x93C6, offset: 0x93C6, size: 0x8, addend: 0x0, symName: __ZNKSt3__112basic_stringIcNS_11char_traitsIcEENS_9allocatorIcEEE4dataB7v160006Ev, symObjAddr: 0xFE8, symBinAddr: 0x100001670, symSize: 0x28 }
  - { offsetInCU: 0x93EB, offset: 0x93EB, size: 0x8, addend: 0x0, symName: __ZNKSt3__112basic_stringIcNS_11char_traitsIcEENS_9allocatorIcEEE4sizeB7v160006Ev, symObjAddr: 0x1010, symBinAddr: 0x100001698, symSize: 0x54 }
  - { offsetInCU: 0x9410, offset: 0x9410, size: 0x8, addend: 0x0, symName: __ZNSt3__117basic_string_viewIcNS_11char_traitsIcEEEC1B7v160006EPKcm, symObjAddr: 0x1064, symBinAddr: 0x1000016EC, symSize: 0x3C }
  - { offsetInCU: 0x9457, offset: 0x9457, size: 0x8, addend: 0x0, symName: __ZNKSt3__112basic_stringIcNS_11char_traitsIcEENS_9allocatorIcEEE13__get_pointerB7v160006Ev, symObjAddr: 0x10B4, symBinAddr: 0x10000173C, symSize: 0x54 }
  - { offsetInCU: 0x947C, offset: 0x947C, size: 0x8, addend: 0x0, symName: __ZNKSt3__112basic_stringIcNS_11char_traitsIcEENS_9allocatorIcEEE9__is_longB7v160006Ev, symObjAddr: 0x1108, symBinAddr: 0x100001790, symSize: 0x38 }
  - { offsetInCU: 0x94A1, offset: 0x94A1, size: 0x8, addend: 0x0, symName: __ZNKSt3__112basic_stringIcNS_11char_traitsIcEENS_9allocatorIcEEE18__get_long_pointerB7v160006Ev, symObjAddr: 0x1140, symBinAddr: 0x1000017C8, symSize: 0x28 }
  - { offsetInCU: 0x94C6, offset: 0x94C6, size: 0x8, addend: 0x0, symName: __ZNKSt3__112basic_stringIcNS_11char_traitsIcEENS_9allocatorIcEEE19__get_short_pointerB7v160006Ev, symObjAddr: 0x1168, symBinAddr: 0x1000017F0, symSize: 0x28 }
  - { offsetInCU: 0x94EB, offset: 0x94EB, size: 0x8, addend: 0x0, symName: __ZNKSt3__117__compressed_pairINS_12basic_stringIcNS_11char_traitsIcEENS_9allocatorIcEEE5__repES5_E5firstB7v160006Ev, symObjAddr: 0x1190, symBinAddr: 0x100001818, symSize: 0x24 }
  - { offsetInCU: 0x9510, offset: 0x9510, size: 0x8, addend: 0x0, symName: __ZNKSt3__122__compressed_pair_elemINS_12basic_stringIcNS_11char_traitsIcEENS_9allocatorIcEEE5__repELi0ELb0EE5__getB7v160006Ev, symObjAddr: 0x11B4, symBinAddr: 0x10000183C, symSize: 0x14 }
  - { offsetInCU: 0x9535, offset: 0x9535, size: 0x8, addend: 0x0, symName: __ZNSt3__114pointer_traitsIPKcE10pointer_toB7v160006ERS1_, symObjAddr: 0x11C8, symBinAddr: 0x100001850, symSize: 0x14 }
  - { offsetInCU: 0x9558, offset: 0x9558, size: 0x8, addend: 0x0, symName: __ZNKSt3__112basic_stringIcNS_11char_traitsIcEENS_9allocatorIcEEE15__get_long_sizeB7v160006Ev, symObjAddr: 0x11DC, symBinAddr: 0x100001864, symSize: 0x28 }
  - { offsetInCU: 0x957D, offset: 0x957D, size: 0x8, addend: 0x0, symName: __ZNKSt3__112basic_stringIcNS_11char_traitsIcEENS_9allocatorIcEEE16__get_short_sizeB7v160006Ev, symObjAddr: 0x1204, symBinAddr: 0x10000188C, symSize: 0x34 }
  - { offsetInCU: 0x95A2, offset: 0x95A2, size: 0x8, addend: 0x0, symName: __ZNSt3__117basic_string_viewIcNS_11char_traitsIcEEEC2B7v160006EPKcm, symObjAddr: 0x1238, symBinAddr: 0x1000018C0, symSize: 0x50 }
  - { offsetInCU: 0x95E9, offset: 0x95E9, size: 0x8, addend: 0x0, symName: __ZNSt3__120_CmpUnspecifiedParamC2B7v160006EMS0_i, symObjAddr: 0x1288, symBinAddr: 0x100001910, symSize: 0x18 }
  - { offsetInCU: 0x961D, offset: 0x961D, size: 0x8, addend: 0x0, symName: __ZNSt3__112basic_stringIcNS_11char_traitsIcEENS_9allocatorIcEEEC2B7v160006IDnEEPKc, symObjAddr: 0x12A0, symBinAddr: 0x100001928, symSize: 0x60 }
  - { offsetInCU: 0x965F, offset: 0x965F, size: 0x8, addend: 0x0, symName: __ZNSt3__117__compressed_pairINS_12basic_stringIcNS_11char_traitsIcEENS_9allocatorIcEEE5__repES5_EC1B7v160006INS_18__default_init_tagESA_EEOT_OT0_, symObjAddr: 0x1300, symBinAddr: 0x100001988, symSize: 0x3C }
  - { offsetInCU: 0x96B6, offset: 0x96B6, size: 0x8, addend: 0x0, symName: __ZNSt3__111char_traitsIcE6lengthEPKc, symObjAddr: 0x133C, symBinAddr: 0x1000019C4, symSize: 0x34 }
  - { offsetInCU: 0x96D9, offset: 0x96D9, size: 0x8, addend: 0x0, symName: __ZNSt3__117__compressed_pairINS_12basic_stringIcNS_11char_traitsIcEENS_9allocatorIcEEE5__repES5_EC2B7v160006INS_18__default_init_tagESA_EEOT_OT0_, symObjAddr: 0x1380, symBinAddr: 0x100001A08, symSize: 0x3C }
  - { offsetInCU: 0x9730, offset: 0x9730, size: 0x8, addend: 0x0, symName: __ZNSt3__122__compressed_pair_elemINS_12basic_stringIcNS_11char_traitsIcEENS_9allocatorIcEEE5__repELi0ELb0EEC2B7v160006ENS_18__default_init_tagE, symObjAddr: 0x13BC, symBinAddr: 0x100001A44, symSize: 0x14 }
  - { offsetInCU: 0x9764, offset: 0x9764, size: 0x8, addend: 0x0, symName: __ZNSt3__122__compressed_pair_elemINS_9allocatorIcEELi1ELb1EEC2B7v160006ENS_18__default_init_tagE, symObjAddr: 0x13D0, symBinAddr: 0x100001A58, symSize: 0x2C }
  - { offsetInCU: 0x9798, offset: 0x9798, size: 0x8, addend: 0x0, symName: __ZNSt3__19allocatorIcEC2B7v160006Ev, symObjAddr: 0x13FC, symBinAddr: 0x100001A84, symSize: 0x2C }
  - { offsetInCU: 0x97C1, offset: 0x97C1, size: 0x8, addend: 0x0, symName: __ZNSt3__116__non_trivial_ifILb1ENS_9allocatorIcEEEC2B7v160006Ev, symObjAddr: 0x1428, symBinAddr: 0x100001AB0, symSize: 0x14 }
  - { offsetInCU: 0x97EA, offset: 0x97EA, size: 0x8, addend: 0x0, symName: __ZNSt3__112basic_stringIcNS_11char_traitsIcEENS_9allocatorIcEEEC2B7v160006Ev, symObjAddr: 0x1460, symBinAddr: 0x100001AE8, symSize: 0x50 }
  - { offsetInCU: 0x9813, offset: 0x9813, size: 0x8, addend: 0x0, symName: __ZNSt3__112basic_stringIcNS_11char_traitsIcEENS_9allocatorIcEEE14__default_initB7v160006Ev, symObjAddr: 0x14B0, symBinAddr: 0x100001B38, symSize: 0x40 }
  - { offsetInCU: 0x9838, offset: 0x9838, size: 0x8, addend: 0x0, symName: __ZNSt3__117__compressed_pairINS_12basic_stringIcNS_11char_traitsIcEENS_9allocatorIcEEE5__repES5_E5firstB7v160006Ev, symObjAddr: 0x14F0, symBinAddr: 0x100001B78, symSize: 0x24 }
  - { offsetInCU: 0x985D, offset: 0x985D, size: 0x8, addend: 0x0, symName: __ZNSt3__122__compressed_pair_elemINS_12basic_stringIcNS_11char_traitsIcEENS_9allocatorIcEEE5__repELi0ELb0EE5__getB7v160006Ev, symObjAddr: 0x1514, symBinAddr: 0x100001B9C, symSize: 0x14 }
  - { offsetInCU: 0x98A0, offset: 0x98A0, size: 0x8, addend: 0x0, symName: __ZNKSt3__113basic_ostreamIcNS_11char_traitsIcEEE6sentrycvbB7v160006Ev, symObjAddr: 0x1714, symBinAddr: 0x100001D9C, symSize: 0x1C }
  - { offsetInCU: 0x98C5, offset: 0x98C5, size: 0x8, addend: 0x0, symName: __ZNSt3__119ostreambuf_iteratorIcNS_11char_traitsIcEEEC1B7v160006ERNS_13basic_ostreamIcS2_EE, symObjAddr: 0x1970, symBinAddr: 0x100001FF8, symSize: 0x34 }
  - { offsetInCU: 0x98FC, offset: 0x98FC, size: 0x8, addend: 0x0, symName: __ZNKSt3__18ios_base5flagsB7v160006Ev, symObjAddr: 0x19A4, symBinAddr: 0x10000202C, symSize: 0x18 }
  - { offsetInCU: 0x9923, offset: 0x9923, size: 0x8, addend: 0x0, symName: __ZNKSt3__19basic_iosIcNS_11char_traitsIcEEE4fillB7v160006Ev, symObjAddr: 0x19BC, symBinAddr: 0x100002044, symSize: 0x64 }
  - { offsetInCU: 0x994A, offset: 0x994A, size: 0x8, addend: 0x0, symName: __ZNKSt3__119ostreambuf_iteratorIcNS_11char_traitsIcEEE6failedB7v160006Ev, symObjAddr: 0x1A20, symBinAddr: 0x1000020A8, symSize: 0x24 }
  - { offsetInCU: 0x996F, offset: 0x996F, size: 0x8, addend: 0x0, symName: __ZNSt3__19basic_iosIcNS_11char_traitsIcEEE8setstateB7v160006Ej, symObjAddr: 0x1A44, symBinAddr: 0x1000020CC, symSize: 0x2C }
  - { offsetInCU: 0x99A3, offset: 0x99A3, size: 0x8, addend: 0x0, symName: __ZNKSt3__18ios_base5widthB7v160006Ev, symObjAddr: 0x1A70, symBinAddr: 0x1000020F8, symSize: 0x18 }
  - { offsetInCU: 0x99CA, offset: 0x99CA, size: 0x8, addend: 0x0, symName: __ZNSt3__115basic_streambufIcNS_11char_traitsIcEEE5sputnB7v160006EPKcl, symObjAddr: 0x1A88, symBinAddr: 0x100002110, symSize: 0x3C }
  - { offsetInCU: 0x9A0B, offset: 0x9A0B, size: 0x8, addend: 0x0, symName: __ZNSt3__112basic_stringIcNS_11char_traitsIcEENS_9allocatorIcEEEC1B7v160006Emc, symObjAddr: 0x1AC4, symBinAddr: 0x10000214C, symSize: 0x3C }
  - { offsetInCU: 0x9A52, offset: 0x9A52, size: 0x8, addend: 0x0, symName: __ZNSt3__112basic_stringIcNS_11char_traitsIcEENS_9allocatorIcEEE4dataB7v160006Ev, symObjAddr: 0x1B00, symBinAddr: 0x100002188, symSize: 0x28 }
  - { offsetInCU: 0x9A77, offset: 0x9A77, size: 0x8, addend: 0x0, symName: __ZNSt3__18ios_base5widthB7v160006El, symObjAddr: 0x1B28, symBinAddr: 0x1000021B0, symSize: 0x2C }
  - { offsetInCU: 0x9ABC, offset: 0x9ABC, size: 0x8, addend: 0x0, symName: __ZNSt3__112basic_stringIcNS_11char_traitsIcEENS_9allocatorIcEEEC2B7v160006Emc, symObjAddr: 0x1B54, symBinAddr: 0x1000021DC, symSize: 0x54 }
  - { offsetInCU: 0x9B03, offset: 0x9B03, size: 0x8, addend: 0x0, symName: __ZNSt3__112basic_stringIcNS_11char_traitsIcEENS_9allocatorIcEEE13__get_pointerB7v160006Ev, symObjAddr: 0x1BBC, symBinAddr: 0x100002244, symSize: 0x54 }
  - { offsetInCU: 0x9B28, offset: 0x9B28, size: 0x8, addend: 0x0, symName: __ZNSt3__112basic_stringIcNS_11char_traitsIcEENS_9allocatorIcEEE18__get_long_pointerB7v160006Ev, symObjAddr: 0x1C10, symBinAddr: 0x100002298, symSize: 0x28 }
  - { offsetInCU: 0x9B4D, offset: 0x9B4D, size: 0x8, addend: 0x0, symName: __ZNSt3__112basic_stringIcNS_11char_traitsIcEENS_9allocatorIcEEE19__get_short_pointerB7v160006Ev, symObjAddr: 0x1C38, symBinAddr: 0x1000022C0, symSize: 0x28 }
  - { offsetInCU: 0x9B72, offset: 0x9B72, size: 0x8, addend: 0x0, symName: __ZNSt3__114pointer_traitsIPcE10pointer_toB7v160006ERc, symObjAddr: 0x1C60, symBinAddr: 0x1000022E8, symSize: 0x14 }
  - { offsetInCU: 0x9B95, offset: 0x9B95, size: 0x8, addend: 0x0, symName: __ZNSt3__119ostreambuf_iteratorIcNS_11char_traitsIcEEEC2B7v160006ERNS_13basic_ostreamIcS2_EE, symObjAddr: 0x1C74, symBinAddr: 0x1000022FC, symSize: 0x54 }
  - { offsetInCU: 0x9BCC, offset: 0x9BCC, size: 0x8, addend: 0x0, symName: __ZNKSt3__19basic_iosIcNS_11char_traitsIcEEE5rdbufB7v160006Ev, symObjAddr: 0x1CC8, symBinAddr: 0x100002350, symSize: 0x24 }
  - { offsetInCU: 0x9BF3, offset: 0x9BF3, size: 0x8, addend: 0x0, symName: __ZNKSt3__18ios_base5rdbufB7v160006Ev, symObjAddr: 0x1CEC, symBinAddr: 0x100002374, symSize: 0x18 }
  - { offsetInCU: 0x9C18, offset: 0x9C18, size: 0x8, addend: 0x0, symName: __ZNSt3__111char_traitsIcE11eq_int_typeEii, symObjAddr: 0x1D04, symBinAddr: 0x10000238C, symSize: 0x28 }
  - { offsetInCU: 0x9C49, offset: 0x9C49, size: 0x8, addend: 0x0, symName: __ZNSt3__111char_traitsIcE3eofEv, symObjAddr: 0x1D2C, symBinAddr: 0x1000023B4, symSize: 0x8 }
  - { offsetInCU: 0x9C5D, offset: 0x9C5D, size: 0x8, addend: 0x0, symName: __ZNKSt3__19basic_iosIcNS_11char_traitsIcEEE5widenB7v160006Ec, symObjAddr: 0x1D34, symBinAddr: 0x1000023BC, symSize: 0x84 }
  - { offsetInCU: 0x9CC5, offset: 0x9CC5, size: 0x8, addend: 0x0, symName: __ZNKSt3__15ctypeIcE5widenB7v160006Ec, symObjAddr: 0x1DE4, symBinAddr: 0x10000246C, symSize: 0x38 }
  - { offsetInCU: 0x9CF9, offset: 0x9CF9, size: 0x8, addend: 0x0, symName: __ZNSt3__18ios_base8setstateB7v160006Ej, symObjAddr: 0x1E1C, symBinAddr: 0x1000024A4, symSize: 0x34 }
  - { offsetInCU: 0x9D2F, offset: 0x9D2F, size: 0x8, addend: 0x0, symName: __ZN6tinykv8SkipListINSt3__112basic_stringIcNS1_11char_traitsIcEENS1_9allocatorIcEEEES7_EC2EPNS_10ComparatorIS7_EEPNS_5ArenaEj, symObjAddr: 0x1E50, symBinAddr: 0x1000024D8, symSize: 0x194 }
  - { offsetInCU: 0x9DA0, offset: 0x9DA0, size: 0x8, addend: 0x0, symName: __ZNSt3__123mersenne_twister_engineIjLm32ELm624ELm397ELm31ELj2567483615ELm11ELj4294967295ELm7ELj2636928640ELm15ELj4022730752ELm18ELj1812433253EEC1B7v160006Ev, symObjAddr: 0x1FE4, symBinAddr: 0x10000266C, symSize: 0x30 }
  - { offsetInCU: 0x9DC9, offset: 0x9DC9, size: 0x8, addend: 0x0, symName: __ZNSt3__123mersenne_twister_engineIjLm32ELm624ELm397ELm31ELj2567483615ELm11ELj4294967295ELm7ELj2636928640ELm15ELj4022730752ELm18ELj1812433253EE4seedEj, symObjAddr: 0x2014, symBinAddr: 0x10000269C, symSize: 0xC4 }
  - { offsetInCU: 0x9E35, offset: 0x9E35, size: 0x8, addend: 0x0, symName: __ZNSt3__113random_deviceC1Ev, symObjAddr: 0x20D8, symBinAddr: 0x100002760, symSize: 0x74 }
  - { offsetInCU: 0x9E5E, offset: 0x9E5E, size: 0x8, addend: 0x0, symName: __ZN6tinykv5Arena12AllocateNodeEmmi, symObjAddr: 0x214C, symBinAddr: 0x1000027D4, symSize: 0x58 }
  - { offsetInCU: 0x9EC9, offset: 0x9EC9, size: 0x8, addend: 0x0, symName: __ZN6tinykv8SkipListINSt3__112basic_stringIcNS1_11char_traitsIcEENS1_9allocatorIcEEEES7_E4Node10SetForwardEiPS9_, symObjAddr: 0x21A4, symBinAddr: 0x10000282C, symSize: 0x28 }
  - { offsetInCU: 0x9F0A, offset: 0x9F0A, size: 0x8, addend: 0x0, symName: __ZNSt3__123mersenne_twister_engineIjLm32ELm624ELm397ELm31ELj2567483615ELm11ELj4294967295ELm7ELj2636928640ELm15ELj4022730752ELm18ELj1812433253EEC1B7v160006Ej, symObjAddr: 0x21CC, symBinAddr: 0x100002854, symSize: 0x34 }
  - { offsetInCU: 0x9F41, offset: 0x9F41, size: 0x8, addend: 0x0, symName: __ZNSt3__123mersenne_twister_engineIjLm32ELm624ELm397ELm31ELj2567483615ELm11ELj4294967295ELm7ELj2636928640ELm15ELj4022730752ELm18ELj1812433253EEC2B7v160006Ej, symObjAddr: 0x2200, symBinAddr: 0x100002888, symSize: 0x34 }
  - { offsetInCU: 0x9F78, offset: 0x9F78, size: 0x8, addend: 0x0, symName: __ZNSt3__123mersenne_twister_engineIjLm32ELm624ELm397ELm31ELj2567483615ELm11ELj4294967295ELm7ELj2636928640ELm15ELj4022730752ELm18ELj1812433253EE8__rshiftB7v160006ILm30EEENS_9enable_ifIXltT_L_ZNS1_3_DtEEEjE4typeEj, symObjAddr: 0x2234, symBinAddr: 0x1000028BC, symSize: 0x18 }
  - { offsetInCU: 0x9FA4, offset: 0x9FA4, size: 0x8, addend: 0x0, symName: __ZNK6tinykv8SkipListINSt3__112basic_stringIcNS1_11char_traitsIcEENS1_9allocatorIcEEEES7_E18FindGreaterOrEqualERKS7_PPNS8_4NodeE, symObjAddr: 0x224C, symBinAddr: 0x1000028D4, symSize: 0x104 }
  - { offsetInCU: 0xA01F, offset: 0xA01F, size: 0x8, addend: 0x0, symName: __ZN6tinykv8SkipListINSt3__112basic_stringIcNS1_11char_traitsIcEENS1_9allocatorIcEEEES7_E4Node6GetKeyEv, symObjAddr: 0x2350, symBinAddr: 0x1000029D8, symSize: 0x18 }
  - { offsetInCU: 0xA044, offset: 0xA044, size: 0x8, addend: 0x0, symName: __ZN6tinykv8SkipListINSt3__112basic_stringIcNS1_11char_traitsIcEENS1_9allocatorIcEEEES7_E4Node8GetValueEv, symObjAddr: 0x2368, symBinAddr: 0x1000029F0, symSize: 0x18 }
  - { offsetInCU: 0xA069, offset: 0xA069, size: 0x8, addend: 0x0, symName: __ZNK6tinykv8SkipListINSt3__112basic_stringIcNS1_11char_traitsIcEENS1_9allocatorIcEEEES7_E4Node10GetForwardEi, symObjAddr: 0x2494, symBinAddr: 0x100002B1C, symSize: 0x20 }
  - { offsetInCU: 0xA09C, offset: 0xA09C, size: 0x8, addend: 0x0, symName: __ZNSt3__124uniform_int_distributionIiEC1Eii, symObjAddr: 0x24B4, symBinAddr: 0x100002B3C, symSize: 0x3C }
  - { offsetInCU: 0xA0E1, offset: 0xA0E1, size: 0x8, addend: 0x0, symName: __ZNSt3__124uniform_int_distributionIiEclINS_23mersenne_twister_engineIjLm32ELm624ELm397ELm31ELj2567483615ELm11ELj4294967295ELm7ELj2636928640ELm15ELj4022730752ELm18ELj1812433253EEEEEiRT_, symObjAddr: 0x24F0, symBinAddr: 0x100002B78, symSize: 0x30 }
  - { offsetInCU: 0xA11D, offset: 0xA11D, size: 0x8, addend: 0x0, symName: __ZNSt3__124uniform_int_distributionIiEC2Eii, symObjAddr: 0x2520, symBinAddr: 0x100002BA8, symSize: 0x3C }
  - { offsetInCU: 0xA162, offset: 0xA162, size: 0x8, addend: 0x0, symName: __ZNSt3__124uniform_int_distributionIiE10param_typeC1Eii, symObjAddr: 0x255C, symBinAddr: 0x100002BE4, symSize: 0x3C }
  - { offsetInCU: 0xA1A7, offset: 0xA1A7, size: 0x8, addend: 0x0, symName: __ZNSt3__124uniform_int_distributionIiE10param_typeC2Eii, symObjAddr: 0x2598, symBinAddr: 0x100002C20, symSize: 0x2C }
  - { offsetInCU: 0xA1EC, offset: 0xA1EC, size: 0x8, addend: 0x0, symName: __ZNKSt3__124uniform_int_distributionIiE10param_type1bEv, symObjAddr: 0x274C, symBinAddr: 0x100002DD4, symSize: 0x18 }
  - { offsetInCU: 0xA211, offset: 0xA211, size: 0x8, addend: 0x0, symName: __ZNKSt3__124uniform_int_distributionIiE10param_type1aEv, symObjAddr: 0x2764, symBinAddr: 0x100002DEC, symSize: 0x18 }
  - { offsetInCU: 0xA236, offset: 0xA236, size: 0x8, addend: 0x0, symName: __ZNSt3__125__independent_bits_engineINS_23mersenne_twister_engineIjLm32ELm624ELm397ELm31ELj2567483615ELm11ELj4294967295ELm7ELj2636928640ELm15ELj4022730752ELm18ELj1812433253EEEjEC1ERS2_m, symObjAddr: 0x277C, symBinAddr: 0x100002E04, symSize: 0x3C }
  - { offsetInCU: 0xA27C, offset: 0xA27C, size: 0x8, addend: 0x0, symName: __ZNSt3__125__independent_bits_engineINS_23mersenne_twister_engineIjLm32ELm624ELm397ELm31ELj2567483615ELm11ELj4294967295ELm7ELj2636928640ELm15ELj4022730752ELm18ELj1812433253EEEjEclEv, symObjAddr: 0x27B8, symBinAddr: 0x100002E40, symSize: 0x24 }
  - { offsetInCU: 0xA2A1, offset: 0xA2A1, size: 0x8, addend: 0x0, symName: __ZNSt3__114numeric_limitsIjE3maxB7v160006Ev, symObjAddr: 0x2830, symBinAddr: 0x100002EB8, symSize: 0x14 }
  - { offsetInCU: 0xA2B5, offset: 0xA2B5, size: 0x8, addend: 0x0, symName: __ZNSt3__125__independent_bits_engineINS_23mersenne_twister_engineIjLm32ELm624ELm397ELm31ELj2567483615ELm11ELj4294967295ELm7ELj2636928640ELm15ELj4022730752ELm18ELj1812433253EEEjEC2ERS2_m, symObjAddr: 0x2844, symBinAddr: 0x100002ECC, symSize: 0x22C }
  - { offsetInCU: 0xA2FA, offset: 0xA2FA, size: 0x8, addend: 0x0, symName: __ZNSt3__125__independent_bits_engineINS_23mersenne_twister_engineIjLm32ELm624ELm397ELm31ELj2567483615ELm11ELj4294967295ELm7ELj2636928640ELm15ELj4022730752ELm18ELj1812433253EEEjE6__evalENS_17integral_constantIbLb0EEE, symObjAddr: 0x2A70, symBinAddr: 0x1000030F8, symSize: 0x38 }
  - { offsetInCU: 0xA32B, offset: 0xA32B, size: 0x8, addend: 0x0, symName: __ZNSt3__123mersenne_twister_engineIjLm32ELm624ELm397ELm31ELj2567483615ELm11ELj4294967295ELm7ELj2636928640ELm15ELj4022730752ELm18ELj1812433253EEclEv, symObjAddr: 0x2AA8, symBinAddr: 0x100003130, symSize: 0x14C }
  - { offsetInCU: 0xA39D, offset: 0xA39D, size: 0x8, addend: 0x0, symName: __ZNSt3__123mersenne_twister_engineIjLm32ELm624ELm397ELm31ELj2567483615ELm11ELj4294967295ELm7ELj2636928640ELm15ELj4022730752ELm18ELj1812433253EE8__rshiftB7v160006ILm1EEENS_9enable_ifIXltT_L_ZNS1_3_DtEEEjE4typeEj, symObjAddr: 0x2BF4, symBinAddr: 0x10000327C, symSize: 0x18 }
  - { offsetInCU: 0xA3CA, offset: 0xA3CA, size: 0x8, addend: 0x0, symName: __ZNSt3__123mersenne_twister_engineIjLm32ELm624ELm397ELm31ELj2567483615ELm11ELj4294967295ELm7ELj2636928640ELm15ELj4022730752ELm18ELj1812433253EE8__rshiftB7v160006ILm11EEENS_9enable_ifIXltT_L_ZNS1_3_DtEEEjE4typeEj, symObjAddr: 0x2C0C, symBinAddr: 0x100003294, symSize: 0x18 }
  - { offsetInCU: 0xA3F7, offset: 0xA3F7, size: 0x8, addend: 0x0, symName: __ZNSt3__123mersenne_twister_engineIjLm32ELm624ELm397ELm31ELj2567483615ELm11ELj4294967295ELm7ELj2636928640ELm15ELj4022730752ELm18ELj1812433253EE8__lshiftB7v160006ILm7EEENS_9enable_ifIXltT_Lm32EEjE4typeEj, symObjAddr: 0x2C24, symBinAddr: 0x1000032AC, symSize: 0x1C }
  - { offsetInCU: 0xA424, offset: 0xA424, size: 0x8, addend: 0x0, symName: __ZNSt3__123mersenne_twister_engineIjLm32ELm624ELm397ELm31ELj2567483615ELm11ELj4294967295ELm7ELj2636928640ELm15ELj4022730752ELm18ELj1812433253EE8__lshiftB7v160006ILm15EEENS_9enable_ifIXltT_Lm32EEjE4typeEj, symObjAddr: 0x2C40, symBinAddr: 0x1000032C8, symSize: 0x1C }
  - { offsetInCU: 0xA451, offset: 0xA451, size: 0x8, addend: 0x0, symName: __ZNSt3__123mersenne_twister_engineIjLm32ELm624ELm397ELm31ELj2567483615ELm11ELj4294967295ELm7ELj2636928640ELm15ELj4022730752ELm18ELj1812433253EE8__rshiftB7v160006ILm18EEENS_9enable_ifIXltT_L_ZNS1_3_DtEEEjE4typeEj, symObjAddr: 0x2C5C, symBinAddr: 0x1000032E4, symSize: 0x18 }
  - { offsetInCU: 0xA47E, offset: 0xA47E, size: 0x8, addend: 0x0, symName: __ZNSt3__123__libcpp_numeric_limitsIjLb1EE3maxB7v160006Ev, symObjAddr: 0x2C8C, symBinAddr: 0x100003314, symSize: 0x8 }
  - { offsetInCU: 0x17B0, offset: 0xBCE8, size: 0x8, addend: 0x0, symName: __ZN6tinykv5ArenaC2Ev, symObjAddr: 0x0, symBinAddr: 0x10000331C, symSize: 0x24 }
  - { offsetInCU: 0x17DB, offset: 0xBD13, size: 0x8, addend: 0x0, symName: __ZN6tinykv5ArenaC1Ev, symObjAddr: 0x24, symBinAddr: 0x100003340, symSize: 0x2C }
  - { offsetInCU: 0x1806, offset: 0xBD3E, size: 0x8, addend: 0x0, symName: __ZN6tinykv5ArenaD2Ev, symObjAddr: 0x50, symBinAddr: 0x10000336C, symSize: 0x84 }
  - { offsetInCU: 0x1859, offset: 0xBD91, size: 0x8, addend: 0x0, symName: __ZN6tinykv5ArenaD1Ev, symObjAddr: 0xE0, symBinAddr: 0x1000033F0, symSize: 0x2C }
  - { offsetInCU: 0x1884, offset: 0xBDBC, size: 0x8, addend: 0x0, symName: __ZN6tinykv5ArenaC2EOS0_, symObjAddr: 0x10C, symBinAddr: 0x10000341C, symSize: 0x68 }
  - { offsetInCU: 0x18BD, offset: 0xBDF5, size: 0x8, addend: 0x0, symName: __ZN6tinykv5ArenaC1EOS0_, symObjAddr: 0x174, symBinAddr: 0x100003484, symSize: 0x34 }
  - { offsetInCU: 0x18F6, offset: 0xBE2E, size: 0x8, addend: 0x0, symName: __ZN6tinykv5ArenaaSEOS0_, symObjAddr: 0x1A8, symBinAddr: 0x1000034B8, symSize: 0xA0 }
  - { offsetInCU: 0x192B, offset: 0xBE63, size: 0x8, addend: 0x0, symName: __ZN6tinykv5Arena7AlignUpEPcm, symObjAddr: 0x248, symBinAddr: 0x100003558, symSize: 0x74 }
  - { offsetInCU: 0x198A, offset: 0xBEC2, size: 0x8, addend: 0x0, symName: __ZN6tinykv5Arena13AllocateBlockEm, symObjAddr: 0x2BC, symBinAddr: 0x1000035CC, symSize: 0xAC }
  - { offsetInCU: 0x19DB, offset: 0xBF13, size: 0x8, addend: 0x0, symName: __ZN6tinykv5Arena8AllocateEm, symObjAddr: 0x368, symBinAddr: 0x100003678, symSize: 0xC4 }
  - { offsetInCU: 0x1A2D, offset: 0xBF65, size: 0x8, addend: 0x0, symName: __ZN6tinykv5Arena15AllocateAlignedEmm, symObjAddr: 0x42C, symBinAddr: 0x10000373C, symSize: 0xE0 }
...
